target datalayout = "e-m:e-p270:32:32-p271:32:32-p272:64:64-i64:64-i128:128-f80:128-n8:16:32:64-S128"
target triple = "x86_64-pc-linux-gnu"

%"class.cv::utils::trace::details::Region" = type <{ ptr, i32, [4 x i8] }>
%"class.cv::Mat" = type { i32, i32, i32, i32, ptr, ptr, ptr, ptr, ptr, ptr, %"struct.cv::MatSize", %"struct.cv::MatStep" }
%"struct.cv::MatSize" = type { ptr }
%"struct.cv::MatStep" = type { ptr, [2 x i64] }
%"class.cv::_InputArray" = type { i32, ptr, %"class.cv::Size_" }
%"class.cv::Size_" = type { i32, i32 }
%"class.cv::MatExpr" = type { ptr, i32, %"class.cv::Mat", %"class.cv::Mat", %"class.cv::Mat", double, double, %"class.cv::Scalar_" }
%"class.cv::Scalar_" = type { %"class.cv::Vec" }
%"class.cv::Vec" = type { %"class.cv::Matx" }
%"class.cv::Matx" = type { [4 x double] }
%"class.cv::_OutputArray" = type { %"class.cv::_InputArray" }

; Function Attrs: inlinehint mustprogress nounwind uwtable
define linkonce_odr hidden void @_ZN2cv4MatxIdLi4ELi1EEC2Ev(ptr noundef nonnull align 8 dereferenceable(32) %0) unnamed_addr #7 comdat align 2 {
  %2 = alloca ptr, align 8
  %3 = alloca i32, align 4
  store ptr %0, ptr %2, align 8, !tbaa !290
  %4 = load ptr, ptr %2, align 8
  call void @llvm.lifetime.start.p0(i64 4, ptr %3) #3
  store i32 0, ptr %3, align 4, !tbaa !18
  br label %5

5:                                                ; preds = %14, %1
  %6 = load i32, ptr %3, align 4, !tbaa !18
  %7 = icmp slt i32 %6, 4
  br i1 %7, label %9, label %8

8:                                                ; preds = %5
  call void @llvm.lifetime.end.p0(i64 4, ptr %3) #3
  br label %17

9:                                                ; preds = %5
  %10 = getelementptr inbounds nuw %"class.cv::Matx", ptr %4, i32 0, i32 0
  %11 = load i32, ptr %3, align 4, !tbaa !18
  %12 = sext i32 %11 to i64
  %13 = getelementptr inbounds [4 x double], ptr %10, i64 0, i64 %12
  store double 0.000000e+00, ptr %13, align 8, !tbaa !54
  br label %14

14:                                               ; preds = %9
  %15 = load i32, ptr %3, align 4, !tbaa !18
  %16 = add nsw i32 %15, 1
  store i32 %16, ptr %3, align 4, !tbaa !18
  br label %5, !llvm.loop !292

17:                                               ; preds = %8
  ret void
}

; Function Attrs: inlinehint mustprogress nounwind uwtable
define linkonce_odr hidden void @_ZN2cv5Size_IiEC2Ev(ptr noundef nonnull align 4 dereferenceable(8) %0) unnamed_addr #7 comdat align 2 {
  %2 = alloca ptr, align 8
  store ptr %0, ptr %2, align 8, !tbaa !173
  %3 = load ptr, ptr %2, align 8
  %4 = getelementptr inbounds nuw %"class.cv::Size_", ptr %3, i32 0, i32 0
  store i32 0, ptr %4, align 4, !tbaa !175
  %5 = getelementptr inbounds nuw %"class.cv::Size_", ptr %3, i32 0, i32 1
  store i32 0, ptr %5, align 4, !tbaa !176
  ret void
}

; Function Attrs: inlinehint mustprogress uwtable
define linkonce_odr hidden void @_ZN2cv3VecIdLi4EEC2Ev(ptr noundef nonnull align 8 dereferenceable(32) %0) unnamed_addr #6 comdat align 2 {
  %2 = alloca ptr, align 8
  store ptr %0, ptr %2, align 8, !tbaa !93
  %3 = load ptr, ptr %2, align 8
  call void @_ZN2cv4MatxIdLi4ELi1EEC2Ev(ptr noundef nonnull align 8 dereferenceable(32) %3)
  ret void
}

; Function Attrs: inlinehint mustprogress nounwind uwtable
define linkonce_odr hidden void @_ZN2cv11_InputArray4initEiPKv(ptr noundef nonnull align 8 dereferenceable(24) %0, i32 noundef %1, ptr noundef %2) #7 comdat align 2 {
  %4 = alloca ptr, align 8
  %5 = alloca i32, align 4
  %6 = alloca ptr, align 8
  store ptr %0, ptr %4, align 8, !tbaa !70
  store i32 %1, ptr %5, align 4, !tbaa !18
  store ptr %2, ptr %6, align 8, !tbaa !177
  %7 = load ptr, ptr %4, align 8
  %8 = load i32, ptr %5, align 4, !tbaa !18
  %9 = getelementptr inbounds nuw %"class.cv::_InputArray", ptr %7, i32 0, i32 0
  store i32 %8, ptr %9, align 8, !tbaa !178
  %10 = load ptr, ptr %6, align 8, !tbaa !177
  %11 = getelementptr inbounds nuw %"class.cv::_InputArray", ptr %7, i32 0, i32 1
  store ptr %10, ptr %11, align 8, !tbaa !102
  ret void
}

; Function Attrs: inlinehint mustprogress uwtable
define linkonce_odr hidden void @_ZN2cv11_InputArrayC2Ev(ptr noundef nonnull align 8 dereferenceable(24) %0) unnamed_addr #6 comdat align 2 {
  %2 = alloca ptr, align 8
  store ptr %0, ptr %2, align 8, !tbaa !70
  %3 = load ptr, ptr %2, align 8
  %4 = getelementptr inbounds nuw %"class.cv::_InputArray", ptr %3, i32 0, i32 2
  call void @_ZN2cv5Size_IiEC2Ev(ptr noundef nonnull align 4 dereferenceable(8) %4)
  call void @_ZN2cv11_InputArray4initEiPKv(ptr noundef nonnull align 8 dereferenceable(24) %3, i32 noundef 0, ptr noundef null)
  ret void
}

; Function Attrs: inlinehint mustprogress uwtable
define linkonce_odr hidden void @_ZNK2cv7MatExprcvNS_3MatEEv(ptr dead_on_unwind noalias writable sret(%"class.cv::Mat") align 8 %0, ptr noundef nonnull align 8 dereferenceable(352) %1) #6 comdat align 2 personality ptr @__gxx_personality_v0 {
  %3 = alloca ptr, align 8
  %4 = alloca ptr, align 8
  %5 = alloca i1, align 1
  %6 = alloca ptr, align 8
  %7 = alloca i32, align 4
  store ptr %0, ptr %3, align 8
  store ptr %1, ptr %4, align 8, !tbaa !74
  %8 = load ptr, ptr %4, align 8
  store i1 false, ptr %5, align 1
  call void @_ZN2cv3MatC1Ev(ptr noundef nonnull align 8 dereferenceable(96) %0) #3
  %9 = getelementptr inbounds nuw %"class.cv::MatExpr", ptr %8, i32 0, i32 0
  %10 = load ptr, ptr %9, align 8, !tbaa !76
  %11 = load ptr, ptr %10, align 8, !tbaa !12
  %12 = getelementptr inbounds ptr, ptr %11, i64 3
  %13 = load ptr, ptr %12, align 8
  invoke void %13(ptr noundef nonnull align 8 dereferenceable(8) %10, ptr noundef nonnull align 8 dereferenceable(352) %8, ptr noundef nonnull align 8 dereferenceable(96) %0, i32 noundef -1)
          to label %14 unwind label %16

14:                                               ; preds = %2
  store i1 true, ptr %5, align 1
  %15 = load i1, ptr %5, align 1
  br i1 %15, label %21, label %20

16:                                               ; preds = %2
  %17 = landingpad { ptr, i32 }
          cleanup
  %18 = extractvalue { ptr, i32 } %17, 0
  store ptr %18, ptr %6, align 8
  %19 = extractvalue { ptr, i32 } %17, 1
  store i32 %19, ptr %7, align 4
  call void @_ZN2cv3MatD1Ev(ptr noundef nonnull align 8 dereferenceable(96) %0) #3
  br label %22

20:                                               ; preds = %14
  call void @_ZN2cv3MatD1Ev(ptr noundef nonnull align 8 dereferenceable(96) %0) #3
  br label %21

21:                                               ; preds = %20, %14
  ret void

22:                                               ; preds = %16
  %23 = load ptr, ptr %6, align 8
  %24 = load i32, ptr %7, align 4
  %25 = insertvalue { ptr, i32 } poison, ptr %23, 0
  %26 = insertvalue { ptr, i32 } %25, i32 %24, 1
  resume { ptr, i32 } %26
}

; Function Attrs: inlinehint mustprogress uwtable
define linkonce_odr hidden void @_ZN2cv7Scalar_IdEC2Ed(ptr noundef nonnull align 8 dereferenceable(32) %0, double noundef %1) unnamed_addr #6 comdat align 2 {
  %3 = alloca ptr, align 8
  %4 = alloca double, align 8
  store ptr %0, ptr %3, align 8, !tbaa !117
  store double %1, ptr %4, align 8, !tbaa !54
  %5 = load ptr, ptr %3, align 8
  call void @_ZN2cv3VecIdLi4EEC2Ev(ptr noundef nonnull align 8 dereferenceable(32) %5)
  %6 = load double, ptr %4, align 8, !tbaa !54
  %7 = getelementptr inbounds nuw %"class.cv::Matx", ptr %5, i32 0, i32 0
  %8 = getelementptr inbounds [4 x double], ptr %7, i64 0, i64 0
  store double %6, ptr %8, align 8, !tbaa !54
  %9 = getelementptr inbounds nuw %"class.cv::Matx", ptr %5, i32 0, i32 0
  %10 = getelementptr inbounds [4 x double], ptr %9, i64 0, i64 3
  store double 0.000000e+00, ptr %10, align 8, !tbaa !54
  %11 = getelementptr inbounds nuw %"class.cv::Matx", ptr %5, i32 0, i32 0
  %12 = getelementptr inbounds [4 x double], ptr %11, i64 0, i64 2
  store double 0.000000e+00, ptr %12, align 8, !tbaa !54
  %13 = getelementptr inbounds nuw %"class.cv::Matx", ptr %5, i32 0, i32 0
  %14 = getelementptr inbounds [4 x double], ptr %13, i64 0, i64 1
  store double 0.000000e+00, ptr %14, align 8, !tbaa !54
  ret void
}

; Function Attrs: inlinehint mustprogress nounwind uwtable
define linkonce_odr hidden void @_ZN2cv11_InputArrayD2Ev(ptr noundef nonnull align 8 dereferenceable(24) %0) unnamed_addr #7 comdat align 2 {
  %2 = alloca ptr, align 8
  store ptr %0, ptr %2, align 8, !tbaa !70
  ret void
}

; Function Attrs: inlinehint mustprogress uwtable
define linkonce_odr hidden void @_ZN2cv12_OutputArrayC2ERNS_3MatE(ptr noundef nonnull align 8 dereferenceable(24) %0, ptr noundef nonnull align 8 dereferenceable(96) %1) unnamed_addr #6 comdat align 2 {
  %3 = alloca ptr, align 8
  %4 = alloca ptr, align 8
  store ptr %0, ptr %3, align 8, !tbaa !72
  store ptr %1, ptr %4, align 8, !tbaa !60
  %5 = load ptr, ptr %3, align 8
  call void @_ZN2cv11_InputArrayC2Ev(ptr noundef nonnull align 8 dereferenceable(24) %5)
  %6 = load ptr, ptr %4, align 8, !tbaa !60
  call void @_ZN2cv11_InputArray4initEiPKv(ptr noundef nonnull align 8 dereferenceable(24) %5, i32 noundef 33619968, ptr noundef %6)
  ret void
}

; Function Attrs: mustprogress uwtable
define hidden void @_ZNK2cv2ml22LogisticRegressionImpl12calc_sigmoidERKNS_3MatE(ptr dead_on_unwind noalias writable sret(%"class.cv::Mat") align 8 %0, ptr noundef nonnull align 8 dereferenceable(432) %1, ptr noundef nonnull align 8 dereferenceable(96) %2) #4 align 2 personality ptr @__gxx_personality_v0 {
  %4 = alloca ptr, align 8
  %5 = alloca ptr, align 8
  %6 = alloca ptr, align 8
  %7 = alloca %"class.cv::utils::trace::details::Region", align 8
  %8 = alloca %"class.cv::Mat", align 8
  %9 = alloca %"class.cv::_InputArray", align 8
  %10 = alloca %"class.cv::MatExpr", align 8
  %11 = alloca ptr, align 8
  %12 = alloca i32, align 4
  %13 = alloca %"class.cv::_OutputArray", align 8
  %14 = alloca %"class.cv::MatExpr", align 8
  %15 = alloca %"class.cv::MatExpr", align 8
  %16 = alloca %"class.cv::Scalar_", align 8
  store ptr %0, ptr %4, align 8
  store ptr %1, ptr %5, align 8, !tbaa !14
  store ptr %2, ptr %6, align 8, !tbaa !60
  call void @llvm.lifetime.start.p0(i64 16, ptr %7) #3
  call void @_ZN2cv5utils5trace7details6RegionC1ERKNS3_21LocationStaticStorageE(ptr noundef nonnull align 8 dereferenceable(12) %7, ptr noundef nonnull align 8 dereferenceable(32) @_ZZNK2cv2ml22LogisticRegressionImpl12calc_sigmoidERKNS_3MatEE25__cv_trace_location_fn276)
  call void @llvm.lifetime.start.p0(i64 96, ptr %8) #3
  call void @_ZN2cv3MatC1Ev(ptr noundef nonnull align 8 dereferenceable(96) %8) #3
  call void @llvm.lifetime.start.p0(i64 24, ptr %9) #3
  call void @llvm.lifetime.start.p0(i64 352, ptr %10) #3
  %17 = load ptr, ptr %6, align 8, !tbaa !60
  invoke void @_ZN2cvngERKNS_3MatE(ptr dead_on_unwind writable sret(%"class.cv::MatExpr") align 8 %10, ptr noundef nonnull align 8 dereferenceable(96) %17)
          to label %18 unwind label %26

18:                                               ; preds = %3
  invoke void @_ZN2cv11_InputArrayC1ERKNS_7MatExprE(ptr noundef nonnull align 8 dereferenceable(24) %9, ptr noundef nonnull align 8 dereferenceable(352) %10)
          to label %19 unwind label %30

19:                                               ; preds = %18
  call void @llvm.lifetime.start.p0(i64 24, ptr %13) #3
  invoke void @_ZN2cv12_OutputArrayC2ERNS_3MatE(ptr noundef nonnull align 8 dereferenceable(24) %13, ptr noundef nonnull align 8 dereferenceable(96) %8)
          to label %20 unwind label %34

20:                                               ; preds = %19
  invoke void @_ZN2cv3expERKNS_11_InputArrayERKNS_12_OutputArrayE(ptr noundef nonnull align 8 dereferenceable(24) %9, ptr noundef nonnull align 8 dereferenceable(24) %13)
          to label %21 unwind label %38

21:                                               ; preds = %20
  call void @_ZN2cv11_InputArrayD2Ev(ptr noundef nonnull align 8 dereferenceable(24) %13) #3
  call void @llvm.lifetime.end.p0(i64 24, ptr %13) #3
  call void @_ZN2cv11_InputArrayD2Ev(ptr noundef nonnull align 8 dereferenceable(24) %9) #3
  call void @_ZN2cv7MatExprD2Ev(ptr noundef nonnull align 8 dereferenceable(352) %10) #3
  call void @llvm.lifetime.end.p0(i64 352, ptr %10) #3
  call void @llvm.lifetime.end.p0(i64 24, ptr %9) #3
  call void @llvm.lifetime.start.p0(i64 352, ptr %14) #3
  call void @llvm.lifetime.start.p0(i64 352, ptr %15) #3
  call void @llvm.lifetime.start.p0(i64 32, ptr %16) #3
  invoke void @_ZN2cv7Scalar_IdEC2Ed(ptr noundef nonnull align 8 dereferenceable(32) %16, double noundef 1.000000e+00)
          to label %22 unwind label %45

22:                                               ; preds = %21
  invoke void @_ZN2cvplERKNS_7Scalar_IdEERKNS_3MatE(ptr dead_on_unwind writable sret(%"class.cv::MatExpr") align 8 %15, ptr noundef nonnull align 8 dereferenceable(32) %16, ptr noundef nonnull align 8 dereferenceable(96) %8)
          to label %23 unwind label %45

23:                                               ; preds = %22
  invoke void @_ZN2cvdvEdRKNS_7MatExprE(ptr dead_on_unwind writable sret(%"class.cv::MatExpr") align 8 %14, double noundef 1.000000e+00, ptr noundef nonnull align 8 dereferenceable(352) %15)
          to label %24 unwind label %49

24:                                               ; preds = %23
  invoke void @_ZNK2cv7MatExprcvNS_3MatEEv(ptr dead_on_unwind writable sret(%"class.cv::Mat") align 8 %0, ptr noundef nonnull align 8 dereferenceable(352) %14)
          to label %25 unwind label %53

25:                                               ; preds = %24
  call void @_ZN2cv7MatExprD2Ev(ptr noundef nonnull align 8 dereferenceable(352) %14) #3
  call void @_ZN2cv7MatExprD2Ev(ptr noundef nonnull align 8 dereferenceable(352) %15) #3
  call void @llvm.lifetime.end.p0(i64 32, ptr %16) #3
  call void @llvm.lifetime.end.p0(i64 352, ptr %15) #3
  call void @llvm.lifetime.end.p0(i64 352, ptr %14) #3
  call void @_ZN2cv3MatD1Ev(ptr noundef nonnull align 8 dereferenceable(96) %8) #3
  call void @llvm.lifetime.end.p0(i64 96, ptr %8) #3
  call void @_ZN2cv5utils5trace7details6RegionD2Ev(ptr noundef nonnull align 8 dereferenceable(12) %7) #3
  call void @llvm.lifetime.end.p0(i64 16, ptr %7) #3
  ret void

26:                                               ; preds = %3
  %27 = landingpad { ptr, i32 }
          cleanup
  %28 = extractvalue { ptr, i32 } %27, 0
  store ptr %28, ptr %11, align 8
  %29 = extractvalue { ptr, i32 } %27, 1
  store i32 %29, ptr %12, align 4
  br label %44

30:                                               ; preds = %18
  %31 = landingpad { ptr, i32 }
          cleanup
  %32 = extractvalue { ptr, i32 } %31, 0
  store ptr %32, ptr %11, align 8
  %33 = extractvalue { ptr, i32 } %31, 1
  store i32 %33, ptr %12, align 4
  br label %43

34:                                               ; preds = %19
  %35 = landingpad { ptr, i32 }
          cleanup
  %36 = extractvalue { ptr, i32 } %35, 0
  store ptr %36, ptr %11, align 8
  %37 = extractvalue { ptr, i32 } %35, 1
  store i32 %37, ptr %12, align 4
  br label %42

38:                                               ; preds = %20
  %39 = landingpad { ptr, i32 }
          cleanup
  %40 = extractvalue { ptr, i32 } %39, 0
  store ptr %40, ptr %11, align 8
  %41 = extractvalue { ptr, i32 } %39, 1
  store i32 %41, ptr %12, align 4
  call void @_ZN2cv11_InputArrayD2Ev(ptr noundef nonnull align 8 dereferenceable(24) %13) #3
  br label %42

42:                                               ; preds = %38, %34
  call void @llvm.lifetime.end.p0(i64 24, ptr %13) #3
  call void @_ZN2cv11_InputArrayD2Ev(ptr noundef nonnull align 8 dereferenceable(24) %9) #3
  br label %43

43:                                               ; preds = %42, %30
  call void @_ZN2cv7MatExprD2Ev(ptr noundef nonnull align 8 dereferenceable(352) %10) #3
  br label %44

44:                                               ; preds = %43, %26
  call void @llvm.lifetime.end.p0(i64 352, ptr %10) #3
  call void @llvm.lifetime.end.p0(i64 24, ptr %9) #3
  br label %59

45:                                               ; preds = %22, %21
  %46 = landingpad { ptr, i32 }
          cleanup
  %47 = extractvalue { ptr, i32 } %46, 0
  store ptr %47, ptr %11, align 8
  %48 = extractvalue { ptr, i32 } %46, 1
  store i32 %48, ptr %12, align 4
  br label %58

49:                                               ; preds = %23
  %50 = landingpad { ptr, i32 }
          cleanup
  %51 = extractvalue { ptr, i32 } %50, 0
  store ptr %51, ptr %11, align 8
  %52 = extractvalue { ptr, i32 } %50, 1
  store i32 %52, ptr %12, align 4
  br label %57

53:                                               ; preds = %24
  %54 = landingpad { ptr, i32 }
          cleanup
  %55 = extractvalue { ptr, i32 } %54, 0
  store ptr %55, ptr %11, align 8
  %56 = extractvalue { ptr, i32 } %54, 1
  store i32 %56, ptr %12, align 4
  call void @_ZN2cv7MatExprD2Ev(ptr noundef nonnull align 8 dereferenceable(352) %14) #3
  br label %57

57:                                               ; preds = %53, %49
  call void @_ZN2cv7MatExprD2Ev(ptr noundef nonnull align 8 dereferenceable(352) %15) #3
  br label %58

58:                                               ; preds = %57, %45
  call void @llvm.lifetime.end.p0(i64 32, ptr %16) #3
  call void @llvm.lifetime.end.p0(i64 352, ptr %15) #3
  call void @llvm.lifetime.end.p0(i64 352, ptr %14) #3
  br label %59

59:                                               ; preds = %58, %44
  call void @_ZN2cv3MatD1Ev(ptr noundef nonnull align 8 dereferenceable(96) %8) #3
  call void @llvm.lifetime.end.p0(i64 96, ptr %8) #3
  call void @_ZN2cv5utils5trace7details6RegionD2Ev(ptr noundef nonnull align 8 dereferenceable(12) %7) #3
  call void @llvm.lifetime.end.p0(i64 16, ptr %7) #3
  br label %60

60:                                               ; preds = %59
  %61 = load ptr, ptr %11, align 8
  %62 = load i32, ptr %12, align 4
  %63 = insertvalue { ptr, i32 } poison, ptr %61, 0
  %64 = insertvalue { ptr, i32 } %63, i32 %62, 1
  resume { ptr, i32 } %64
}