; Function Attrs: mustprogress uwtable
define hidden void @_ZNK2cv2ml22LogisticRegressionImpl12calc_sigmoidERKNS_3MatE(ptr dead_on_unwind noalias writable sret(%"class.cv::Mat") align 8 %0, ptr nonnull readnone align 8 captures(none) %1, ptr noundef nonnull align 8 dereferenceable(96) %2) local_unnamed_addr #3 align 2 personality ptr @__gxx_personality_v0 {
  %4 = alloca %"class.cv::utils::trace::details::Region", align 8
  %5 = alloca %"class.cv::Mat", align 8
  %6 = alloca %"class.cv::_InputArray", align 8
  %7 = alloca %"class.cv::MatExpr", align 8
  %8 = alloca %"class.cv::_OutputArray", align 8
  %9 = alloca %"class.cv::MatExpr", align 8
  %10 = alloca %"class.cv::MatExpr", align 8
  %11 = alloca %"class.cv::Scalar_", align 8
  call void @llvm.lifetime.start.p0(i64 16, ptr nonnull %4) #21
  call void @_ZN2cv5utils5trace7details6RegionC1ERKNS3_21LocationStaticStorageE(ptr noundef nonnull align 8 dereferenceable(12) %4, ptr noundef nonnull align 8 dereferenceable(32) @_ZZNK2cv2ml22LogisticRegressionImpl12calc_sigmoidERKNS_3MatEE25__cv_trace_location_fn276)
  call void @llvm.lifetime.start.p0(i64 96, ptr nonnull %5) #21
  call void @_ZN2cv3MatC1Ev(ptr noundef nonnull align 8 dereferenceable(96) %5) #21
  call void @llvm.lifetime.start.p0(i64 24, ptr nonnull %6) #21
  call void @llvm.lifetime.start.p0(i64 352, ptr nonnull %7) #21
  invoke void @_ZN2cvngERKNS_3MatE(ptr dead_on_unwind nonnull writable sret(%"class.cv::MatExpr") align 8 %7, ptr noundef nonnull align 8 dereferenceable(96) %2)
          to label %12 unwind label %40

12:                                               ; preds = %3
  invoke void @_ZN2cv11_InputArrayC1ERKNS_7MatExprE(ptr noundef nonnull align 8 dereferenceable(24) %6, ptr noundef nonnull align 8 dereferenceable(352) %7)
          to label %13 unwind label %42

13:                                               ; preds = %12
  call void @llvm.lifetime.start.p0(i64 24, ptr nonnull %8) #21
  %14 = getelementptr inbounds nuw i8, ptr %8, i64 8
  %15 = getelementptr inbounds nuw i8, ptr %8, i64 16
  store i64 0, ptr %15, align 8
  store i32 33619968, ptr %8, align 8, !tbaa !69
  store ptr %5, ptr %14, align 8, !tbaa !71
  invoke void @_ZN2cv3expERKNS_11_InputArrayERKNS_12_OutputArrayE(ptr noundef nonnull align 8 dereferenceable(24) %6, ptr noundef nonnull align 8 dereferenceable(24) %8)
          to label %16 unwind label %44

16:                                               ; preds = %13
  call void @llvm.lifetime.end.p0(i64 24, ptr nonnull %8) #21
  %17 = getelementptr inbounds nuw i8, ptr %7, i64 208
  call void @_ZN2cv3MatD1Ev(ptr noundef nonnull align 8 dereferenceable(96) %17) #21
  %18 = getelementptr inbounds nuw i8, ptr %7, i64 112
  call void @_ZN2cv3MatD1Ev(ptr noundef nonnull align 8 dereferenceable(96) %18) #21
  %19 = getelementptr inbounds nuw i8, ptr %7, i64 16
  call void @_ZN2cv3MatD1Ev(ptr noundef nonnull align 8 dereferenceable(96) %19) #21
  call void @llvm.lifetime.end.p0(i64 352, ptr nonnull %7) #21
  call void @llvm.lifetime.end.p0(i64 24, ptr nonnull %6) #21
  call void @llvm.lifetime.start.p0(i64 352, ptr nonnull %9) #21
  call void @llvm.lifetime.start.p0(i64 352, ptr nonnull %10) #21
  call void @llvm.lifetime.start.p0(i64 32, ptr nonnull %11) #21
  store double 1.000000e+00, ptr %11, align 8, !tbaa !105
  %20 = getelementptr inbounds nuw i8, ptr %11, i64 8
  call void @llvm.memset.p0.i64(ptr noundef nonnull align 8 dereferenceable(24) %20, i8 0, i64 24, i1 false)
  invoke void @_ZN2cvplERKNS_7Scalar_IdEERKNS_3MatE(ptr dead_on_unwind nonnull writable sret(%"class.cv::MatExpr") align 8 %10, ptr noundef nonnull align 8 dereferenceable(32) %11, ptr noundef nonnull align 8 dereferenceable(96) %5)
          to label %21 unwind label %48

21:                                               ; preds = %16
  invoke void @_ZN2cvdvEdRKNS_7MatExprE(ptr dead_on_unwind nonnull writable sret(%"class.cv::MatExpr") align 8 %9, double noundef 1.000000e+00, ptr noundef nonnull align 8 dereferenceable(352) %10)
          to label %22 unwind label %50

22:                                               ; preds = %21
  call void @_ZN2cv3MatC1Ev(ptr noundef nonnull align 8 dereferenceable(96) %0) #21
  %23 = load ptr, ptr %9, align 8, !tbaa !72, !noalias !166
  %24 = load ptr, ptr %23, align 8, !tbaa !40
  %25 = getelementptr inbounds nuw i8, ptr %24, i64 24
  %26 = load ptr, ptr %25, align 8
  invoke void %26(ptr noundef nonnull align 8 dereferenceable(8) %23, ptr noundef nonnull align 8 dereferenceable(352) %9, ptr noundef nonnull align 8 dereferenceable(96) %0, i32 noundef -1)
          to label %_ZNK2cv7MatExprcvNS_3MatEEv.exit unwind label %.body

.body:                                            ; preds = %22
  %27 = landingpad { ptr, i32 }
          cleanup
  call void @_ZN2cv3MatD1Ev(ptr noundef nonnull align 8 dereferenceable(96) %0) #21
  call void @_ZN2cv7MatExprD2Ev(ptr noundef nonnull align 8 dereferenceable(352) %9) #21
  br label %52

_ZNK2cv7MatExprcvNS_3MatEEv.exit:                 ; preds = %22
  %28 = getelementptr inbounds nuw i8, ptr %9, i64 208
  call void @_ZN2cv3MatD1Ev(ptr noundef nonnull align 8 dereferenceable(96) %28) #21
  %29 = getelementptr inbounds nuw i8, ptr %9, i64 112
  call void @_ZN2cv3MatD1Ev(ptr noundef nonnull align 8 dereferenceable(96) %29) #21
  %30 = getelementptr inbounds nuw i8, ptr %9, i64 16
  call void @_ZN2cv3MatD1Ev(ptr noundef nonnull align 8 dereferenceable(96) %30) #21
  %31 = getelementptr inbounds nuw i8, ptr %10, i64 208
  call void @_ZN2cv3MatD1Ev(ptr noundef nonnull align 8 dereferenceable(96) %31) #21
  %32 = getelementptr inbounds nuw i8, ptr %10, i64 112
  call void @_ZN2cv3MatD1Ev(ptr noundef nonnull align 8 dereferenceable(96) %32) #21
  %33 = getelementptr inbounds nuw i8, ptr %10, i64 16
  call void @_ZN2cv3MatD1Ev(ptr noundef nonnull align 8 dereferenceable(96) %33) #21
  call void @llvm.lifetime.end.p0(i64 32, ptr nonnull %11) #21
  call void @llvm.lifetime.end.p0(i64 352, ptr nonnull %10) #21
  call void @llvm.lifetime.end.p0(i64 352, ptr nonnull %9) #21
  call void @_ZN2cv3MatD1Ev(ptr noundef nonnull align 8 dereferenceable(96) %5) #21
  call void @llvm.lifetime.end.p0(i64 96, ptr nonnull %5) #21
  %34 = getelementptr inbounds nuw i8, ptr %4, i64 8
  %35 = load i32, ptr %34, align 8, !tbaa !106
  %.not.i = icmp eq i32 %35, 0
  br i1 %.not.i, label %_ZN2cv5utils5trace7details6RegionD2Ev.exit, label %36

36:                                               ; preds = %_ZNK2cv7MatExprcvNS_3MatEEv.exit
  invoke void @_ZN2cv5utils5trace7details6Region7destroyEv(ptr noundef nonnull align 8 dereferenceable(12) %4)
          to label %_ZN2cv5utils5trace7details6RegionD2Ev.exit unwind label %37

37:                                               ; preds = %36
  %38 = landingpad { ptr, i32 }
          catch ptr null
  %39 = extractvalue { ptr, i32 } %38, 0
  call void @__clang_call_terminate(ptr %39) #25
  unreachable

_ZN2cv5utils5trace7details6RegionD2Ev.exit:       ; preds = %_ZNK2cv7MatExprcvNS_3MatEEv.exit, %36
  call void @llvm.lifetime.end.p0(i64 16, ptr nonnull %4) #21
  ret void

40:                                               ; preds = %3
  %41 = landingpad { ptr, i32 }
          cleanup
  br label %47

42:                                               ; preds = %12
  %43 = landingpad { ptr, i32 }
          cleanup
  br label %46

44:                                               ; preds = %13
  %45 = landingpad { ptr, i32 }
          cleanup
  call void @llvm.lifetime.end.p0(i64 24, ptr nonnull %8) #21
  br label %46

46:                                               ; preds = %44, %42
  %.pn.pn = phi { ptr, i32 } [ %45, %44 ], [ %43, %42 ]
  call void @_ZN2cv7MatExprD2Ev(ptr noundef nonnull align 8 dereferenceable(352) %7) #21
  br label %47

47:                                               ; preds = %46, %40
  %.pn.pn.pn = phi { ptr, i32 } [ %.pn.pn, %46 ], [ %41, %40 ]
  call void @llvm.lifetime.end.p0(i64 352, ptr nonnull %7) #21
  call void @llvm.lifetime.end.p0(i64 24, ptr nonnull %6) #21
  br label %54

48:                                               ; preds = %16
  %49 = landingpad { ptr, i32 }
          cleanup
  br label %53

50:                                               ; preds = %21
  %51 = landingpad { ptr, i32 }
          cleanup
  br label %52

52:                                               ; preds = %.body, %50
  %.pn11 = phi { ptr, i32 } [ %27, %.body ], [ %51, %50 ]
  call void @_ZN2cv7MatExprD2Ev(ptr noundef nonnull align 8 dereferenceable(352) %10) #21
  br label %53

53:                                               ; preds = %52, %48
  %.pn11.pn = phi { ptr, i32 } [ %.pn11, %52 ], [ %49, %48 ]
  call void @llvm.lifetime.end.p0(i64 32, ptr nonnull %11) #21
  call void @llvm.lifetime.end.p0(i64 352, ptr nonnull %10) #21
  call void @llvm.lifetime.end.p0(i64 352, ptr nonnull %9) #21
  br label %54

54:                                               ; preds = %53, %47
  %.pn11.pn.pn = phi { ptr, i32 } [ %.pn11.pn, %53 ], [ %.pn.pn.pn, %47 ]
  call void @_ZN2cv3MatD1Ev(ptr noundef nonnull align 8 dereferenceable(96) %5) #21
  call void @llvm.lifetime.end.p0(i64 96, ptr nonnull %5) #21
  call void @_ZN2cv5utils5trace7details6RegionD2Ev(ptr noundef nonnull align 8 dereferenceable(12) %4) #21
  call void @llvm.lifetime.end.p0(i64 16, ptr nonnull %4) #21
  resume { ptr, i32 } %.pn11.pn.pn
}